(lp1
S'tag:news.google.com,2005:cluster=http://dailyfreepress.com/2016/10/16/mass-churches-sue-anti-discrimination-law/'
p2
aS'tag:news.google.com,2005:cluster=http://www.hrc.org/blog/human-rights-campaign-releases-5th-annual-municipal-equality-index'
p3
a.